target datalayout = "e-m:e-p270:32:32-p271:32:32-p272:64:64-i64:64-i128:128-f80:128-n8:16:32:64-S128"
target triple = "x86_64-pc-linux-gnu"

%struct._zend_ssa_op = type { i32, i32, i32, i32, i32, i32, i32, i32, i32 }
%struct._zend_ssa = type { %struct._zend_cfg, i32, i32, ptr, ptr, ptr, ptr }
%struct._zend_cfg = type { i32, i32, ptr, ptr, ptr, i32 }
%struct._zend_ssa_var = type { i32, i32, i32, i32, ptr, ptr, ptr, i8 }

; Function Attrs: alwaysinline nounwind uwtable
define internal void @_zend_ssa_remove_def(ptr noundef %0) #1 {
  %2 = alloca ptr, align 8
  store ptr %0, ptr %2, align 8, !tbaa !117
  %3 = load ptr, ptr %2, align 8, !tbaa !117
  %4 = getelementptr inbounds nuw %struct._zend_ssa_var, ptr %3, i32 0, i32 2
  %5 = load i32, ptr %4, align 8, !tbaa !121
  %6 = icmp sge i32 %5, 0
  call void @llvm.assume(i1 %6)
  %7 = load ptr, ptr %2, align 8, !tbaa !117
  %8 = getelementptr inbounds nuw %struct._zend_ssa_var, ptr %7, i32 0, i32 3
  %9 = load i32, ptr %8, align 4, !tbaa !122
  %10 = icmp slt i32 %9, 0
  call void @llvm.assume(i1 %10)
  %11 = load ptr, ptr %2, align 8, !tbaa !117
  %12 = getelementptr inbounds nuw %struct._zend_ssa_var, ptr %11, i32 0, i32 5
  %13 = load ptr, ptr %12, align 8, !tbaa !128
  %14 = icmp ne ptr %13, null
  %15 = xor i1 %14, true
  call void @llvm.assume(i1 %15)
  %16 = load ptr, ptr %2, align 8, !tbaa !117
  %17 = getelementptr inbounds nuw %struct._zend_ssa_var, ptr %16, i32 0, i32 2
  store i32 -1, ptr %17, align 8, !tbaa !121
  ret void
}

; Function Attrs: alwaysinline nounwind uwtable
define internal void @zend_ssa_remove_result_def(ptr noundef %0, ptr noundef %1) #1 {
  %3 = alloca ptr, align 8
  %4 = alloca ptr, align 8
  %5 = alloca ptr, align 8
  store ptr %0, ptr %3, align 8, !tbaa !48
  store ptr %1, ptr %4, align 8, !tbaa !13
  call void @llvm.lifetime.start.p0(i64 8, ptr %5) #13
  %6 = load ptr, ptr %3, align 8, !tbaa !48
  %7 = getelementptr inbounds nuw %struct._zend_ssa, ptr %6, i32 0, i32 5
  %8 = load ptr, ptr %7, align 8, !tbaa !116
  %9 = load ptr, ptr %4, align 8, !tbaa !13
  %10 = getelementptr inbounds nuw %struct._zend_ssa_op, ptr %9, i32 0, i32 5
  %11 = load i32, ptr %10, align 4, !tbaa !43
  %12 = sext i32 %11 to i64
  %13 = getelementptr inbounds %struct._zend_ssa_var, ptr %8, i64 %12
  store ptr %13, ptr %5, align 8, !tbaa !117
  %14 = load ptr, ptr %5, align 8, !tbaa !117
  call void @_zend_ssa_remove_def(ptr noundef %14)
  %15 = load ptr, ptr %4, align 8, !tbaa !13
  %16 = getelementptr inbounds nuw %struct._zend_ssa_op, ptr %15, i32 0, i32 5
  store i32 -1, ptr %16, align 4, !tbaa !43
  call void @llvm.lifetime.end.p0(i64 8, ptr %5) #13
  ret void
}

; Function Attrs: alwaysinline nounwind uwtable
define internal void @zend_ssa_remove_op2_def(ptr noundef %0, ptr noundef %1) #1 {
  %3 = alloca ptr, align 8
  %4 = alloca ptr, align 8
  %5 = alloca ptr, align 8
  store ptr %0, ptr %3, align 8, !tbaa !48
  store ptr %1, ptr %4, align 8, !tbaa !13
  call void @llvm.lifetime.start.p0(i64 8, ptr %5) #13
  %6 = load ptr, ptr %3, align 8, !tbaa !48
  %7 = getelementptr inbounds nuw %struct._zend_ssa, ptr %6, i32 0, i32 5
  %8 = load ptr, ptr %7, align 8, !tbaa !116
  %9 = load ptr, ptr %4, align 8, !tbaa !13
  %10 = getelementptr inbounds nuw %struct._zend_ssa_op, ptr %9, i32 0, i32 4
  %11 = load i32, ptr %10, align 4, !tbaa !27
  %12 = sext i32 %11 to i64
  %13 = getelementptr inbounds %struct._zend_ssa_var, ptr %8, i64 %12
  store ptr %13, ptr %5, align 8, !tbaa !117
  %14 = load ptr, ptr %5, align 8, !tbaa !117
  call void @_zend_ssa_remove_def(ptr noundef %14)
  %15 = load ptr, ptr %4, align 8, !tbaa !13
  %16 = getelementptr inbounds nuw %struct._zend_ssa_op, ptr %15, i32 0, i32 4
  store i32 -1, ptr %16, align 4, !tbaa !27
  call void @llvm.lifetime.end.p0(i64 8, ptr %5) #13
  ret void
}

; Function Attrs: alwaysinline nounwind uwtable
define internal void @zend_ssa_remove_op1_def(ptr noundef %0, ptr noundef %1) #1 {
  %3 = alloca ptr, align 8
  %4 = alloca ptr, align 8
  %5 = alloca ptr, align 8
  store ptr %0, ptr %3, align 8, !tbaa !48
  store ptr %1, ptr %4, align 8, !tbaa !13
  call void @llvm.lifetime.start.p0(i64 8, ptr %5) #13
  %6 = load ptr, ptr %3, align 8, !tbaa !48
  %7 = getelementptr inbounds nuw %struct._zend_ssa, ptr %6, i32 0, i32 5
  %8 = load ptr, ptr %7, align 8, !tbaa !116
  %9 = load ptr, ptr %4, align 8, !tbaa !13
  %10 = getelementptr inbounds nuw %struct._zend_ssa_op, ptr %9, i32 0, i32 3
  %11 = load i32, ptr %10, align 4, !tbaa !28
  %12 = sext i32 %11 to i64
  %13 = getelementptr inbounds %struct._zend_ssa_var, ptr %8, i64 %12
  store ptr %13, ptr %5, align 8, !tbaa !117
  %14 = load ptr, ptr %5, align 8, !tbaa !117
  call void @_zend_ssa_remove_def(ptr noundef %14)
  %15 = load ptr, ptr %4, align 8, !tbaa !13
  %16 = getelementptr inbounds nuw %struct._zend_ssa_op, ptr %15, i32 0, i32 3
  store i32 -1, ptr %16, align 4, !tbaa !28
  call void @llvm.lifetime.end.p0(i64 8, ptr %5) #13
  ret void
}

; Function Attrs: nounwind uwtable
define hidden void @zend_ssa_remove_defs_of_instr(ptr noundef %0, ptr noundef %1) #0 {
  %3 = alloca ptr, align 8
  %4 = alloca ptr, align 8
  store ptr %0, ptr %3, align 8, !tbaa !48
  store ptr %1, ptr %4, align 8, !tbaa !13
  %5 = load ptr, ptr %4, align 8, !tbaa !13
  %6 = getelementptr inbounds nuw %struct._zend_ssa_op, ptr %5, i32 0, i32 3
  %7 = load i32, ptr %6, align 4, !tbaa !28
  %8 = icmp sge i32 %7, 0
  br i1 %8, label %9, label %16

9:                                                ; preds = %2
  %10 = load ptr, ptr %3, align 8, !tbaa !48
  %11 = load ptr, ptr %4, align 8, !tbaa !13
  %12 = getelementptr inbounds nuw %struct._zend_ssa_op, ptr %11, i32 0, i32 3
  %13 = load i32, ptr %12, align 4, !tbaa !28
  call void @zend_ssa_remove_uses_of_var(ptr noundef %10, i32 noundef %13)
  %14 = load ptr, ptr %3, align 8, !tbaa !48
  %15 = load ptr, ptr %4, align 8, !tbaa !13
  call void @zend_ssa_remove_op1_def(ptr noundef %14, ptr noundef %15)
  br label %16

16:                                               ; preds = %9, %2
  %17 = load ptr, ptr %4, align 8, !tbaa !13
  %18 = getelementptr inbounds nuw %struct._zend_ssa_op, ptr %17, i32 0, i32 4
  %19 = load i32, ptr %18, align 4, !tbaa !27
  %20 = icmp sge i32 %19, 0
  br i1 %20, label %21, label %28

21:                                               ; preds = %16
  %22 = load ptr, ptr %3, align 8, !tbaa !48
  %23 = load ptr, ptr %4, align 8, !tbaa !13
  %24 = getelementptr inbounds nuw %struct._zend_ssa_op, ptr %23, i32 0, i32 4
  %25 = load i32, ptr %24, align 4, !tbaa !27
  call void @zend_ssa_remove_uses_of_var(ptr noundef %22, i32 noundef %25)
  %26 = load ptr, ptr %3, align 8, !tbaa !48
  %27 = load ptr, ptr %4, align 8, !tbaa !13
  call void @zend_ssa_remove_op2_def(ptr noundef %26, ptr noundef %27)
  br label %28

28:                                               ; preds = %21, %16
  %29 = load ptr, ptr %4, align 8, !tbaa !13
  %30 = getelementptr inbounds nuw %struct._zend_ssa_op, ptr %29, i32 0, i32 5
  %31 = load i32, ptr %30, align 4, !tbaa !43
  %32 = icmp sge i32 %31, 0
  br i1 %32, label %33, label %40

33:                                               ; preds = %28
  %34 = load ptr, ptr %3, align 8, !tbaa !48
  %35 = load ptr, ptr %4, align 8, !tbaa !13
  %36 = getelementptr inbounds nuw %struct._zend_ssa_op, ptr %35, i32 0, i32 5
  %37 = load i32, ptr %36, align 4, !tbaa !43
  call void @zend_ssa_remove_uses_of_var(ptr noundef %34, i32 noundef %37)
  %38 = load ptr, ptr %3, align 8, !tbaa !48
  %39 = load ptr, ptr %4, align 8, !tbaa !13
  call void @zend_ssa_remove_result_def(ptr noundef %38, ptr noundef %39)
  br label %40

40:                                               ; preds = %33, %28
  ret void
}