; Function Attrs: nofree norecurse nosync nounwind memory(readwrite, inaccessiblemem: write) uwtable
define hidden void @zend_ssa_remove_defs_of_instr(ptr noundef readonly captures(none) %0, ptr noundef captures(none) %1) local_unnamed_addr #7 {
  %3 = getelementptr inbounds nuw i8, ptr %1, i64 12
  %4 = load i32, ptr %3, align 4, !tbaa !20
  %5 = icmp sgt i32 %4, -1
  br i1 %5, label %6, label %20

6:                                                ; preds = %2
  tail call void @zend_ssa_remove_uses_of_var(ptr noundef %0, i32 noundef %4)
  %7 = getelementptr inbounds nuw i8, ptr %0, i64 64
  %8 = load ptr, ptr %7, align 8, !tbaa !115
  %9 = load i32, ptr %3, align 4, !tbaa !20
  %10 = sext i32 %9 to i64
  %11 = getelementptr inbounds %struct._zend_ssa_var, ptr %8, i64 %10
  %12 = getelementptr inbounds nuw i8, ptr %11, i64 8
  %13 = load i32, ptr %12, align 8, !tbaa !119
  %14 = icmp sgt i32 %13, -1
  tail call void @llvm.assume(i1 %14)
  %15 = getelementptr inbounds nuw i8, ptr %11, i64 12
  %16 = load i32, ptr %15, align 4, !tbaa !120
  %17 = icmp slt i32 %16, 0
  tail call void @llvm.assume(i1 %17)
  %18 = getelementptr inbounds nuw i8, ptr %11, i64 24
  %19 = load ptr, ptr %18, align 8, !tbaa !126
  %.not.i18 = icmp eq ptr %19, null
  tail call void @llvm.assume(i1 %.not.i18)
  store i32 -1, ptr %12, align 8, !tbaa !119
  store i32 -1, ptr %3, align 4, !tbaa !20
  br label %20

20:                                               ; preds = %6, %2
  %21 = getelementptr inbounds nuw i8, ptr %1, i64 16
  %22 = load i32, ptr %21, align 4, !tbaa !19
  %23 = icmp sgt i32 %22, -1
  br i1 %23, label %24, label %38

24:                                               ; preds = %20
  tail call void @zend_ssa_remove_uses_of_var(ptr noundef %0, i32 noundef %22)
  %25 = getelementptr inbounds nuw i8, ptr %0, i64 64
  %26 = load ptr, ptr %25, align 8, !tbaa !115
  %27 = load i32, ptr %21, align 4, !tbaa !19
  %28 = sext i32 %27 to i64
  %29 = getelementptr inbounds %struct._zend_ssa_var, ptr %26, i64 %28
  %30 = getelementptr inbounds nuw i8, ptr %29, i64 8
  %31 = load i32, ptr %30, align 8, !tbaa !119
  %32 = icmp sgt i32 %31, -1
  tail call void @llvm.assume(i1 %32)
  %33 = getelementptr inbounds nuw i8, ptr %29, i64 12
  %34 = load i32, ptr %33, align 4, !tbaa !120
  %35 = icmp slt i32 %34, 0
  tail call void @llvm.assume(i1 %35)
  %36 = getelementptr inbounds nuw i8, ptr %29, i64 24
  %37 = load ptr, ptr %36, align 8, !tbaa !126
  %.not.i17 = icmp eq ptr %37, null
  tail call void @llvm.assume(i1 %.not.i17)
  store i32 -1, ptr %30, align 8, !tbaa !119
  store i32 -1, ptr %21, align 4, !tbaa !19
  br label %38

38:                                               ; preds = %24, %20
  %39 = getelementptr inbounds nuw i8, ptr %1, i64 20
  %40 = load i32, ptr %39, align 4, !tbaa !37
  %41 = icmp sgt i32 %40, -1
  br i1 %41, label %42, label %56

42:                                               ; preds = %38
  tail call void @zend_ssa_remove_uses_of_var(ptr noundef %0, i32 noundef %40)
  %43 = getelementptr inbounds nuw i8, ptr %0, i64 64
  %44 = load ptr, ptr %43, align 8, !tbaa !115
  %45 = load i32, ptr %39, align 4, !tbaa !37
  %46 = sext i32 %45 to i64
  %47 = getelementptr inbounds %struct._zend_ssa_var, ptr %44, i64 %46
  %48 = getelementptr inbounds nuw i8, ptr %47, i64 8
  %49 = load i32, ptr %48, align 8, !tbaa !119
  %50 = icmp sgt i32 %49, -1
  tail call void @llvm.assume(i1 %50)
  %51 = getelementptr inbounds nuw i8, ptr %47, i64 12
  %52 = load i32, ptr %51, align 4, !tbaa !120
  %53 = icmp slt i32 %52, 0
  tail call void @llvm.assume(i1 %53)
  %54 = getelementptr inbounds nuw i8, ptr %47, i64 24
  %55 = load ptr, ptr %54, align 8, !tbaa !126
  %.not.i = icmp eq ptr %55, null
  tail call void @llvm.assume(i1 %.not.i)
  store i32 -1, ptr %48, align 8, !tbaa !119
  store i32 -1, ptr %39, align 4, !tbaa !37
  br label %56

56:                                               ; preds = %42, %38
  ret void
}